target datalayout = "e-m:e-p270:32:32-p271:32:32-p272:64:64-i64:64-i128:128-f80:128-n8:16:32:64-S128"
target triple = "x86_64-pc-linux-gnu"

%struct._cmsAlarmCodesChunkType = type { [16 x i16] }
%struct._cmstransform_struct = type { i32, i32, ptr, ptr, ptr, ptr, ptr, %struct._cmsCACHE, ptr, ptr, ptr, ptr, i32, i32, %struct.cmsCIEXYZ, %struct.cmsCIEXYZ, ptr, i32, double, i32, ptr, ptr, ptr, ptr, ptr, i32, i32 }
%struct._cmsCACHE = type { [16 x i16], [16 x i16] }
%struct.cmsCIEXYZ = type { double, double, double }
%struct.cmsStride = type { i32, i32, i32, i32 }
%struct._cmsPipeline_struct = type { ptr, i32, i32, ptr, ptr, ptr, ptr, ptr, ptr, i32 }

; Function Attrs: nounwind uwtable
define internal void @TransformOnePixelWithGamutCheck(ptr noundef %0, ptr noundef %1, ptr noundef %2) #0 {
  %4 = alloca ptr, align 8
  %5 = alloca ptr, align 8
  %6 = alloca ptr, align 8
  %7 = alloca i16, align 2
  %8 = alloca i32, align 4
  %9 = alloca ptr, align 8
  store ptr %0, ptr %4, align 8
  store ptr %1, ptr %5, align 8
  store ptr %2, ptr %6, align 8
  %10 = load ptr, ptr %4, align 8
  %11 = getelementptr inbounds %struct._cmstransform_struct, ptr %10, i32 0, i32 9
  %12 = load ptr, ptr %11, align 8
  %13 = getelementptr inbounds %struct._cmsPipeline_struct, ptr %12, i32 0, i32 4
  %14 = load ptr, ptr %13, align 8
  %15 = load ptr, ptr %5, align 8
  %16 = load ptr, ptr %4, align 8
  %17 = getelementptr inbounds %struct._cmstransform_struct, ptr %16, i32 0, i32 9
  %18 = load ptr, ptr %17, align 8
  %19 = getelementptr inbounds %struct._cmsPipeline_struct, ptr %18, i32 0, i32 3
  %20 = load ptr, ptr %19, align 8
  call void %14(ptr noundef %15, ptr noundef %7, ptr noundef %20)
  %21 = load i16, ptr %7, align 2
  %22 = zext i16 %21 to i32
  %23 = icmp sge i32 %22, 1
  br i1 %23, label %24, label %52

24:                                               ; preds = %3
  %25 = load ptr, ptr %4, align 8
  %26 = getelementptr inbounds %struct._cmstransform_struct, ptr %25, i32 0, i32 20
  %27 = load ptr, ptr %26, align 8
  %28 = call ptr @_cmsContextGetClientChunk(ptr noundef %27, i32 noundef 2)
  store ptr %28, ptr %9, align 8
  store i32 0, ptr %8, align 4
  br label %29

29:                                               ; preds = %48, %24
  %30 = load i32, ptr %8, align 4
  %31 = load ptr, ptr %4, align 8
  %32 = getelementptr inbounds %struct._cmstransform_struct, ptr %31, i32 0, i32 8
  %33 = load ptr, ptr %32, align 8
  %34 = getelementptr inbounds %struct._cmsPipeline_struct, ptr %33, i32 0, i32 2
  %35 = load i32, ptr %34, align 4
  %36 = icmp ult i32 %30, %35
  br i1 %36, label %37, label %51

37:                                               ; preds = %29
  %38 = load ptr, ptr %9, align 8
  %39 = getelementptr inbounds %struct._cmsAlarmCodesChunkType, ptr %38, i32 0, i32 0
  %40 = load i32, ptr %8, align 4
  %41 = zext i32 %40 to i64
  %42 = getelementptr inbounds [16 x i16], ptr %39, i64 0, i64 %41
  %43 = load i16, ptr %42, align 2
  %44 = load ptr, ptr %6, align 8
  %45 = load i32, ptr %8, align 4
  %46 = zext i32 %45 to i64
  %47 = getelementptr inbounds i16, ptr %44, i64 %46
  store i16 %43, ptr %47, align 2
  br label %48

48:                                               ; preds = %37
  %49 = load i32, ptr %8, align 4
  %50 = add i32 %49, 1
  store i32 %50, ptr %8, align 4
  br label %29, !llvm.loop !10

51:                                               ; preds = %29
  br label %65

52:                                               ; preds = %3
  %53 = load ptr, ptr %4, align 8
  %54 = getelementptr inbounds %struct._cmstransform_struct, ptr %53, i32 0, i32 8
  %55 = load ptr, ptr %54, align 8
  %56 = getelementptr inbounds %struct._cmsPipeline_struct, ptr %55, i32 0, i32 4
  %57 = load ptr, ptr %56, align 8
  %58 = load ptr, ptr %5, align 8
  %59 = load ptr, ptr %6, align 8
  %60 = load ptr, ptr %4, align 8
  %61 = getelementptr inbounds %struct._cmstransform_struct, ptr %60, i32 0, i32 8
  %62 = load ptr, ptr %61, align 8
  %63 = getelementptr inbounds %struct._cmsPipeline_struct, ptr %62, i32 0, i32 3
  %64 = load ptr, ptr %63, align 8
  call void %57(ptr noundef %58, ptr noundef %59, ptr noundef %64)
  br label %65

65:                                               ; preds = %52, %51
  ret void
}

; Function Attrs: nounwind uwtable
define internal void @CachedXFORMGamutCheck(ptr noundef %0, ptr noundef %1, ptr noundef %2, i32 noundef %3, i32 noundef %4, ptr noundef %5) #0 {
  %7 = alloca ptr, align 8
  %8 = alloca ptr, align 8
  %9 = alloca ptr, align 8
  %10 = alloca i32, align 4
  %11 = alloca i32, align 4
  %12 = alloca ptr, align 8
  %13 = alloca ptr, align 8
  %14 = alloca ptr, align 8
  %15 = alloca [16 x i16], align 16
  %16 = alloca [16 x i16], align 16
  %17 = alloca %struct._cmsCACHE, align 2
  %18 = alloca i32, align 4
  %19 = alloca i32, align 4
  %20 = alloca i32, align 4
  %21 = alloca i32, align 4
  store ptr %0, ptr %7, align 8
  store ptr %1, ptr %8, align 8
  store ptr %2, ptr %9, align 8
  store i32 %3, ptr %10, align 4
  store i32 %4, ptr %11, align 4
  store ptr %5, ptr %12, align 8
  %22 = load ptr, ptr %7, align 8
  %23 = load ptr, ptr %8, align 8
  %24 = load ptr, ptr %9, align 8
  %25 = load i32, ptr %10, align 4
  %26 = load i32, ptr %11, align 4
  %27 = load ptr, ptr %12, align 8
  call void @_cmsHandleExtraChannels(ptr noundef %22, ptr noundef %23, ptr noundef %24, i32 noundef %25, i32 noundef %26, ptr noundef %27)
  %28 = getelementptr inbounds [16 x i16], ptr %15, i64 0, i64 0
  call void @llvm.memset.p0.i64(ptr align 16 %28, i8 0, i64 32, i1 false)
  %29 = getelementptr inbounds [16 x i16], ptr %16, i64 0, i64 0
  call void @llvm.memset.p0.i64(ptr align 16 %29, i8 0, i64 32, i1 false)
  %30 = load ptr, ptr %7, align 8
  %31 = getelementptr inbounds %struct._cmstransform_struct, ptr %30, i32 0, i32 7
  call void @llvm.memcpy.p0.p0.i64(ptr align 2 %17, ptr align 8 %31, i64 64, i1 false)
  store i32 0, ptr %20, align 4
  store i32 0, ptr %21, align 4
  store i32 0, ptr %18, align 4
  br label %32

32:                                               ; preds = %104, %6
  %33 = load i32, ptr %18, align 4
  %34 = load i32, ptr %11, align 4
  %35 = icmp ult i32 %33, %34
  br i1 %35, label %36, label %107

36:                                               ; preds = %32
  %37 = load ptr, ptr %8, align 8
  %38 = load i32, ptr %20, align 4
  %39 = zext i32 %38 to i64
  %40 = getelementptr inbounds i8, ptr %37, i64 %39
  store ptr %40, ptr %13, align 8
  %41 = load ptr, ptr %9, align 8
  %42 = load i32, ptr %21, align 4
  %43 = zext i32 %42 to i64
  %44 = getelementptr inbounds i8, ptr %41, i64 %43
  store ptr %44, ptr %14, align 8
  store i32 0, ptr %19, align 4
  br label %45

45:                                               ; preds = %90, %36
  %46 = load i32, ptr %19, align 4
  %47 = load i32, ptr %10, align 4
  %48 = icmp ult i32 %46, %47
  br i1 %48, label %49, label %93

49:                                               ; preds = %45
  %50 = load ptr, ptr %7, align 8
  %51 = getelementptr inbounds %struct._cmstransform_struct, ptr %50, i32 0, i32 3
  %52 = load ptr, ptr %51, align 8
  %53 = load ptr, ptr %7, align 8
  %54 = getelementptr inbounds [16 x i16], ptr %15, i64 0, i64 0
  %55 = load ptr, ptr %13, align 8
  %56 = load ptr, ptr %12, align 8
  %57 = getelementptr inbounds %struct.cmsStride, ptr %56, i32 0, i32 2
  %58 = load i32, ptr %57, align 4
  %59 = call ptr %52(ptr noundef %53, ptr noundef %54, ptr noundef %55, i32 noundef %58)
  store ptr %59, ptr %13, align 8
  %60 = getelementptr inbounds [16 x i16], ptr %15, i64 0, i64 0
  %61 = getelementptr inbounds %struct._cmsCACHE, ptr %17, i32 0, i32 0
  %62 = getelementptr inbounds [16 x i16], ptr %61, i64 0, i64 0
  %63 = call i32 @memcmp(ptr noundef %60, ptr noundef %62, i64 noundef 32) #5
  %64 = icmp eq i32 %63, 0
  br i1 %64, label %65, label %69

65:                                               ; preds = %49
  %66 = getelementptr inbounds [16 x i16], ptr %16, i64 0, i64 0
  %67 = getelementptr inbounds %struct._cmsCACHE, ptr %17, i32 0, i32 1
  %68 = getelementptr inbounds [16 x i16], ptr %67, i64 0, i64 0
  call void @llvm.memcpy.p0.p0.i64(ptr align 16 %66, ptr align 2 %68, i64 32, i1 false)
  br label %79

69:                                               ; preds = %49
  %70 = load ptr, ptr %7, align 8
  %71 = getelementptr inbounds [16 x i16], ptr %15, i64 0, i64 0
  %72 = getelementptr inbounds [16 x i16], ptr %16, i64 0, i64 0
  call void @TransformOnePixelWithGamutCheck(ptr noundef %70, ptr noundef %71, ptr noundef %72)
  %73 = getelementptr inbounds %struct._cmsCACHE, ptr %17, i32 0, i32 0
  %74 = getelementptr inbounds [16 x i16], ptr %73, i64 0, i64 0
  %75 = getelementptr inbounds [16 x i16], ptr %15, i64 0, i64 0
  call void @llvm.memcpy.p0.p0.i64(ptr align 2 %74, ptr align 16 %75, i64 32, i1 false)
  %76 = getelementptr inbounds %struct._cmsCACHE, ptr %17, i32 0, i32 1
  %77 = getelementptr inbounds [16 x i16], ptr %76, i64 0, i64 0
  %78 = getelementptr inbounds [16 x i16], ptr %16, i64 0, i64 0
  call void @llvm.memcpy.p0.p0.i64(ptr align 2 %77, ptr align 16 %78, i64 32, i1 false)
  br label %79

79:                                               ; preds = %69, %65
  %80 = load ptr, ptr %7, align 8
  %81 = getelementptr inbounds %struct._cmstransform_struct, ptr %80, i32 0, i32 4
  %82 = load ptr, ptr %81, align 8
  %83 = load ptr, ptr %7, align 8
  %84 = getelementptr inbounds [16 x i16], ptr %16, i64 0, i64 0
  %85 = load ptr, ptr %14, align 8
  %86 = load ptr, ptr %12, align 8
  %87 = getelementptr inbounds %struct.cmsStride, ptr %86, i32 0, i32 3
  %88 = load i32, ptr %87, align 4
  %89 = call ptr %82(ptr noundef %83, ptr noundef %84, ptr noundef %85, i32 noundef %88)
  store ptr %89, ptr %14, align 8
  br label %90

90:                                               ; preds = %79
  %91 = load i32, ptr %19, align 4
  %92 = add i32 %91, 1
  store i32 %92, ptr %19, align 4
  br label %45, !llvm.loop !24

93:                                               ; preds = %45
  %94 = load ptr, ptr %12, align 8
  %95 = getelementptr inbounds %struct.cmsStride, ptr %94, i32 0, i32 0
  %96 = load i32, ptr %95, align 4
  %97 = load i32, ptr %20, align 4
  %98 = add i32 %97, %96
  store i32 %98, ptr %20, align 4
  %99 = load ptr, ptr %12, align 8
  %100 = getelementptr inbounds %struct.cmsStride, ptr %99, i32 0, i32 1
  %101 = load i32, ptr %100, align 4
  %102 = load i32, ptr %21, align 4
  %103 = add i32 %102, %101
  store i32 %103, ptr %21, align 4
  br label %104

104:                                              ; preds = %93
  %105 = load i32, ptr %18, align 4
  %106 = add i32 %105, 1
  store i32 %106, ptr %18, align 4
  br label %32, !llvm.loop !25

107:                                              ; preds = %32
  ret void
}