; Function Attrs: nounwind uwtable
define internal void @CachedXFORMGamutCheck(ptr noundef %0, ptr noundef %1, ptr noundef %2, i32 noundef %3, i32 noundef %4, ptr noundef %5) #0 {
  %7 = alloca i16, align 2
  %8 = alloca [16 x i16], align 16
  %9 = alloca [16 x i16], align 16
  %10 = alloca %struct._cmsCACHE, align 2
  tail call void @_cmsHandleExtraChannels(ptr noundef %0, ptr noundef %1, ptr noundef %2, i32 noundef %3, i32 noundef %4, ptr noundef %5) #11
  call void @llvm.memset.p0.i64(ptr noundef nonnull align 16 dereferenceable(32) %8, i8 0, i64 32, i1 false)
  call void @llvm.memset.p0.i64(ptr noundef nonnull align 16 dereferenceable(32) %9, i8 0, i64 32, i1 false)
  %11 = getelementptr inbounds i8, ptr %0, i64 48
  call void @llvm.memcpy.p0.p0.i64(ptr noundef nonnull align 2 dereferenceable(64) %10, ptr noundef nonnull align 8 dereferenceable(64) %11, i64 64, i1 false)
  %.not = icmp eq i32 %4, 0
  br i1 %.not, label %._crit_edge42, label %.lr.ph41

.lr.ph41:                                         ; preds = %6
  %.not43 = icmp eq i32 %3, 0
  %12 = getelementptr inbounds i8, ptr %0, i64 16
  %13 = getelementptr inbounds i8, ptr %5, i64 8
  %14 = getelementptr inbounds i8, ptr %0, i64 120
  %15 = getelementptr inbounds i8, ptr %0, i64 232
  %16 = getelementptr inbounds i8, ptr %0, i64 112
  %17 = getelementptr inbounds i8, ptr %10, i64 32
  %18 = getelementptr inbounds i8, ptr %0, i64 24
  %19 = getelementptr inbounds i8, ptr %5, i64 12
  %20 = getelementptr inbounds i8, ptr %5, i64 4
  br i1 %.not43, label %._crit_edge42, label %.lr.ph.us

.lr.ph.us:                                        ; preds = %.lr.ph41, %._crit_edge.us
  %.039.us = phi i32 [ %64, %._crit_edge.us ], [ 0, %.lr.ph41 ]
  %.02938.us = phi i32 [ %62, %._crit_edge.us ], [ 0, %.lr.ph41 ]
  %.03137.us = phi i32 [ %65, %._crit_edge.us ], [ 0, %.lr.ph41 ]
  %21 = zext i32 %.02938.us to i64
  %22 = getelementptr inbounds i8, ptr %1, i64 %21
  %23 = zext i32 %.039.us to i64
  %24 = getelementptr inbounds i8, ptr %2, i64 %23
  br label %25

25:                                               ; preds = %.lr.ph.us, %56
  %.03036.us = phi i32 [ 0, %.lr.ph.us ], [ %60, %56 ]
  %.03235.us = phi ptr [ %24, %.lr.ph.us ], [ %59, %56 ]
  %.03334.us = phi ptr [ %22, %.lr.ph.us ], [ %28, %56 ]
  %26 = load ptr, ptr %12, align 8
  %27 = load i32, ptr %13, align 4
  %28 = call ptr %26(ptr noundef nonnull %0, ptr noundef nonnull %8, ptr noundef %.03334.us, i32 noundef %27) #11
  %bcmp.us = call i32 @bcmp(ptr noundef nonnull dereferenceable(32) %8, ptr noundef nonnull dereferenceable(32) %10, i64 32)
  %29 = icmp eq i32 %bcmp.us, 0
  br i1 %29, label %55, label %30

30:                                               ; preds = %25
  call void @llvm.lifetime.start.p0(i64 2, ptr nonnull %7)
  %31 = load ptr, ptr %14, align 8
  %32 = getelementptr inbounds i8, ptr %31, i64 24
  %33 = load ptr, ptr %32, align 8
  %34 = getelementptr inbounds i8, ptr %31, i64 16
  %35 = load ptr, ptr %34, align 8
  call void %33(ptr noundef nonnull %8, ptr noundef nonnull %7, ptr noundef %35) #11
  %36 = load i16, ptr %7, align 2
  %.not.i.us = icmp eq i16 %36, 0
  br i1 %.not.i.us, label %49, label %37

37:                                               ; preds = %30
  %38 = load ptr, ptr %15, align 8
  %39 = call ptr @_cmsContextGetClientChunk(ptr noundef %38, i32 noundef 2) #11
  %40 = load ptr, ptr %16, align 8
  %41 = getelementptr inbounds i8, ptr %40, i64 12
  %42 = load i32, ptr %41, align 4
  %.not15.i.us = icmp eq i32 %42, 0
  br i1 %.not15.i.us, label %TransformOnePixelWithGamutCheck.exit.us, label %.lr.ph.i.us

.lr.ph.i.us:                                      ; preds = %37, %.lr.ph.i.us
  %indvars.iv.i.us = phi i64 [ %indvars.iv.next.i.us, %.lr.ph.i.us ], [ 0, %37 ]
  %43 = getelementptr inbounds [16 x i16], ptr %39, i64 0, i64 %indvars.iv.i.us
  %44 = load i16, ptr %43, align 2
  %45 = getelementptr inbounds i16, ptr %9, i64 %indvars.iv.i.us
  store i16 %44, ptr %45, align 2
  %indvars.iv.next.i.us = add nuw nsw i64 %indvars.iv.i.us, 1
  %46 = load i32, ptr %41, align 4
  %47 = zext i32 %46 to i64
  %48 = icmp ult i64 %indvars.iv.next.i.us, %47
  br i1 %48, label %.lr.ph.i.us, label %TransformOnePixelWithGamutCheck.exit.us, !llvm.loop !11

49:                                               ; preds = %30
  %50 = load ptr, ptr %16, align 8
  %51 = getelementptr inbounds i8, ptr %50, i64 24
  %52 = load ptr, ptr %51, align 8
  %53 = getelementptr inbounds i8, ptr %50, i64 16
  %54 = load ptr, ptr %53, align 8
  call void %52(ptr noundef nonnull %8, ptr noundef nonnull %9, ptr noundef %54) #11
  br label %TransformOnePixelWithGamutCheck.exit.us

TransformOnePixelWithGamutCheck.exit.us:          ; preds = %.lr.ph.i.us, %49, %37
  call void @llvm.lifetime.end.p0(i64 2, ptr nonnull %7)
  call void @llvm.memcpy.p0.p0.i64(ptr noundef nonnull align 2 dereferenceable(32) %10, ptr noundef nonnull align 16 dereferenceable(32) %8, i64 32, i1 false)
  call void @llvm.memcpy.p0.p0.i64(ptr noundef nonnull align 2 dereferenceable(32) %17, ptr noundef nonnull align 16 dereferenceable(32) %9, i64 32, i1 false)
  br label %56

55:                                               ; preds = %25
  call void @llvm.memcpy.p0.p0.i64(ptr noundef nonnull align 16 dereferenceable(32) %9, ptr noundef nonnull align 2 dereferenceable(32) %17, i64 32, i1 false)
  br label %56

56:                                               ; preds = %55, %TransformOnePixelWithGamutCheck.exit.us
  %57 = load ptr, ptr %18, align 8
  %58 = load i32, ptr %19, align 4
  %59 = call ptr %57(ptr noundef %0, ptr noundef nonnull %9, ptr noundef %.03235.us, i32 noundef %58) #11
  %60 = add nuw i32 %.03036.us, 1
  %exitcond.not = icmp eq i32 %60, %3
  br i1 %exitcond.not, label %._crit_edge.us, label %25, !llvm.loop !25

._crit_edge.us:                                   ; preds = %56
  %61 = load i32, ptr %5, align 4
  %62 = add i32 %61, %.02938.us
  %63 = load i32, ptr %20, align 4
  %64 = add i32 %63, %.039.us
  %65 = add nuw i32 %.03137.us, 1
  %exitcond45.not = icmp eq i32 %65, %4
  br i1 %exitcond45.not, label %._crit_edge42, label %.lr.ph.us, !llvm.loop !26

._crit_edge42:                                    ; preds = %._crit_edge.us, %.lr.ph41, %6
  ret void
}